target datalayout = "e-m:e-p270:32:32-p271:32:32-p272:64:64-i64:64-i128:128-f80:128-n8:16:32:64-S128"
target triple = "x86_64-pc-linux-gnu"

%struct.AVFilterContext = type { ptr, ptr, ptr, ptr, ptr, i32, ptr, ptr, i32, ptr, ptr, i32, i32, ptr, ptr, ptr, ptr, i32, ptr, i32, i32 }
%struct.HWDownloadContext = type { ptr, ptr, ptr }
%struct.AVFilterFormatsConfig = type { ptr, ptr, ptr, ptr, ptr }
%struct.AVFilterLink = type { ptr, ptr, ptr, ptr, i32, i32, i32, i32, %struct.AVRational, i32, i32, i32, %struct.AVChannelLayout, %struct.AVRational, ptr, i32, %struct.AVFilterFormatsConfig, %struct.AVFilterFormatsConfig }
%struct.AVChannelLayout = type { i32, i32, %union.anon.1, ptr }
%union.anon.1 = type { i64 }
%struct.AVRational = type { i32, i32 }
%struct.AVFrame = type { [8 x ptr], [8 x i32], ptr, i32, i32, i32, i32, i32, %struct.AVRational, i64, i64, %struct.AVRational, i32, ptr, i32, i32, [8 x ptr], ptr, i32, ptr, i32, i32, i32, i32, i32, i32, i32, i64, ptr, i32, ptr, ptr, i64, i64, i64, i64, ptr, %struct.AVChannelLayout, i64 }
%struct.AVBufferRef = type { ptr, ptr, i64 }
%struct.AVHWFramesContext = type { ptr, ptr, ptr, ptr, ptr, ptr, ptr, i32, i32, i32, i32, i32 }

@.str.3 = private unnamed_addr constant [42 x i8] c"Input frames must have hardware context.\0A\00", align 1
@.str.4 = private unnamed_addr constant [59 x i8] c"Input frame is not the in the configured hwframe context.\0A\00", align 1
@.str.5 = private unnamed_addr constant [31 x i8] c"Failed to download frame: %d.\0A\00", align 1

; Function Attrs: nounwind uwtable
define internal i32 @hwdownload_filter_frame(ptr noundef %0, ptr noundef %1) #1 {
  %3 = alloca i32, align 4
  %4 = alloca ptr, align 8
  %5 = alloca ptr, align 8
  %6 = alloca ptr, align 8
  %7 = alloca ptr, align 8
  %8 = alloca ptr, align 8
  %9 = alloca ptr, align 8
  %10 = alloca i32, align 4
  %11 = alloca i32, align 4
  store ptr %0, ptr %4, align 8, !tbaa !29
  store ptr %1, ptr %5, align 8, !tbaa !31
  call void @llvm.lifetime.start.p0(i64 8, ptr %6) #5
  %12 = load ptr, ptr %4, align 8, !tbaa !29
  %13 = getelementptr inbounds nuw %struct.AVFilterLink, ptr %12, i32 0, i32 2
  %14 = load ptr, ptr %13, align 8, !tbaa !33
  store ptr %14, ptr %6, align 8, !tbaa !4
  call void @llvm.lifetime.start.p0(i64 8, ptr %7) #5
  %15 = load ptr, ptr %6, align 8, !tbaa !4
  %16 = getelementptr inbounds nuw %struct.AVFilterContext, ptr %15, i32 0, i32 7
  %17 = load ptr, ptr %16, align 8, !tbaa !41
  %18 = getelementptr inbounds ptr, ptr %17, i64 0
  %19 = load ptr, ptr %18, align 8, !tbaa !29
  store ptr %19, ptr %7, align 8, !tbaa !29
  call void @llvm.lifetime.start.p0(i64 8, ptr %8) #5
  %20 = load ptr, ptr %6, align 8, !tbaa !4
  %21 = getelementptr inbounds nuw %struct.AVFilterContext, ptr %20, i32 0, i32 9
  %22 = load ptr, ptr %21, align 8, !tbaa !9
  store ptr %22, ptr %8, align 8, !tbaa !22
  call void @llvm.lifetime.start.p0(i64 8, ptr %9) #5
  store ptr null, ptr %9, align 8, !tbaa !31
  call void @llvm.lifetime.start.p0(i64 4, ptr %10) #5
  %23 = load ptr, ptr %8, align 8, !tbaa !22
  %24 = getelementptr inbounds nuw %struct.HWDownloadContext, ptr %23, i32 0, i32 1
  %25 = load ptr, ptr %24, align 8, !tbaa !42
  %26 = icmp ne ptr %25, null
  br i1 %26, label %27, label %32

27:                                               ; preds = %2
  %28 = load ptr, ptr %5, align 8, !tbaa !31
  %29 = getelementptr inbounds nuw %struct.AVFrame, ptr %28, i32 0, i32 30
  %30 = load ptr, ptr %29, align 8, !tbaa !45
  %31 = icmp ne ptr %30, null
  br i1 %31, label %34, label %32

32:                                               ; preds = %27, %2
  %33 = load ptr, ptr %8, align 8, !tbaa !22
  call void (ptr, i32, ptr, ...) @av_log(ptr noundef %33, i32 noundef 16, ptr noundef @.str.3)
  store i32 -22, ptr %10, align 4, !tbaa !28
  br label %96

34:                                               ; preds = %27
  %35 = load ptr, ptr %8, align 8, !tbaa !22
  %36 = getelementptr inbounds nuw %struct.HWDownloadContext, ptr %35, i32 0, i32 2
  %37 = load ptr, ptr %36, align 8, !tbaa !51
  %38 = load ptr, ptr %5, align 8, !tbaa !31
  %39 = getelementptr inbounds nuw %struct.AVFrame, ptr %38, i32 0, i32 30
  %40 = load ptr, ptr %39, align 8, !tbaa !45
  %41 = getelementptr inbounds nuw %struct.AVBufferRef, ptr %40, i32 0, i32 1
  %42 = load ptr, ptr %41, align 8, !tbaa !52
  %43 = icmp ne ptr %37, %42
  br i1 %43, label %44, label %46

44:                                               ; preds = %34
  %45 = load ptr, ptr %8, align 8, !tbaa !22
  call void (ptr, i32, ptr, ...) @av_log(ptr noundef %45, i32 noundef 16, ptr noundef @.str.4)
  store i32 -22, ptr %10, align 4, !tbaa !28
  br label %96

46:                                               ; preds = %34
  %47 = load ptr, ptr %7, align 8, !tbaa !29
  %48 = load ptr, ptr %8, align 8, !tbaa !22
  %49 = getelementptr inbounds nuw %struct.HWDownloadContext, ptr %48, i32 0, i32 2
  %50 = load ptr, ptr %49, align 8, !tbaa !51
  %51 = getelementptr inbounds nuw %struct.AVHWFramesContext, ptr %50, i32 0, i32 10
  %52 = load i32, ptr %51, align 4, !tbaa !55
  %53 = load ptr, ptr %8, align 8, !tbaa !22
  %54 = getelementptr inbounds nuw %struct.HWDownloadContext, ptr %53, i32 0, i32 2
  %55 = load ptr, ptr %54, align 8, !tbaa !51
  %56 = getelementptr inbounds nuw %struct.AVHWFramesContext, ptr %55, i32 0, i32 11
  %57 = load i32, ptr %56, align 8, !tbaa !59
  %58 = call ptr @ff_get_video_buffer(ptr noundef %47, i32 noundef %52, i32 noundef %57)
  store ptr %58, ptr %9, align 8, !tbaa !31
  %59 = load ptr, ptr %9, align 8, !tbaa !31
  %60 = icmp ne ptr %59, null
  br i1 %60, label %62, label %61

61:                                               ; preds = %46
  store i32 -12, ptr %10, align 4, !tbaa !28
  br label %96

62:                                               ; preds = %46
  %63 = load ptr, ptr %9, align 8, !tbaa !31
  %64 = load ptr, ptr %5, align 8, !tbaa !31
  %65 = call i32 @av_hwframe_transfer_data(ptr noundef %63, ptr noundef %64, i32 noundef 0)
  store i32 %65, ptr %10, align 4, !tbaa !28
  %66 = load i32, ptr %10, align 4, !tbaa !28
  %67 = icmp slt i32 %66, 0
  br i1 %67, label %68, label %71

68:                                               ; preds = %62
  %69 = load ptr, ptr %8, align 8, !tbaa !22
  %70 = load i32, ptr %10, align 4, !tbaa !28
  call void (ptr, i32, ptr, ...) @av_log(ptr noundef %69, i32 noundef 16, ptr noundef @.str.5, i32 noundef %70)
  br label %96

71:                                               ; preds = %62
  %72 = load ptr, ptr %7, align 8, !tbaa !29
  %73 = getelementptr inbounds nuw %struct.AVFilterLink, ptr %72, i32 0, i32 6
  %74 = load i32, ptr %73, align 8, !tbaa !60
  %75 = load ptr, ptr %9, align 8, !tbaa !31
  %76 = getelementptr inbounds nuw %struct.AVFrame, ptr %75, i32 0, i32 3
  store i32 %74, ptr %76, align 8, !tbaa !61
  %77 = load ptr, ptr %7, align 8, !tbaa !29
  %78 = getelementptr inbounds nuw %struct.AVFilterLink, ptr %77, i32 0, i32 7
  %79 = load i32, ptr %78, align 4, !tbaa !62
  %80 = load ptr, ptr %9, align 8, !tbaa !31
  %81 = getelementptr inbounds nuw %struct.AVFrame, ptr %80, i32 0, i32 4
  store i32 %79, ptr %81, align 4, !tbaa !63
  %82 = load ptr, ptr %9, align 8, !tbaa !31
  %83 = load ptr, ptr %5, align 8, !tbaa !31
  %84 = call i32 @av_frame_copy_props(ptr noundef %82, ptr noundef %83)
  store i32 %84, ptr %10, align 4, !tbaa !28
  %85 = load i32, ptr %10, align 4, !tbaa !28
  %86 = icmp slt i32 %85, 0
  br i1 %86, label %87, label %88

87:                                               ; preds = %71
  br label %96

88:                                               ; preds = %71
  call void @av_frame_free(ptr noundef %5)
  %89 = load ptr, ptr %6, align 8, !tbaa !4
  %90 = getelementptr inbounds nuw %struct.AVFilterContext, ptr %89, i32 0, i32 7
  %91 = load ptr, ptr %90, align 8, !tbaa !41
  %92 = getelementptr inbounds ptr, ptr %91, i64 0
  %93 = load ptr, ptr %92, align 8, !tbaa !29
  %94 = load ptr, ptr %9, align 8, !tbaa !31
  %95 = call i32 @ff_filter_frame(ptr noundef %93, ptr noundef %94)
  store i32 %95, ptr %3, align 4
  store i32 1, ptr %11, align 4
  br label %98

96:                                               ; preds = %87, %68, %61, %44, %32
  call void @av_frame_free(ptr noundef %5)
  call void @av_frame_free(ptr noundef %9)
  %97 = load i32, ptr %10, align 4, !tbaa !28
  store i32 %97, ptr %3, align 4
  store i32 1, ptr %11, align 4
  br label %98

98:                                               ; preds = %96, %88
  call void @llvm.lifetime.end.p0(i64 4, ptr %10) #5
  call void @llvm.lifetime.end.p0(i64 8, ptr %9) #5
  call void @llvm.lifetime.end.p0(i64 8, ptr %8) #5
  call void @llvm.lifetime.end.p0(i64 8, ptr %7) #5
  call void @llvm.lifetime.end.p0(i64 8, ptr %6) #5
  %99 = load i32, ptr %3, align 4
  ret i32 %99
}