; Function Attrs: nounwind uwtable
define internal i32 @hwdownload_filter_frame(ptr noundef readonly captures(none) %0, ptr noundef %1) #1 {
  %3 = alloca ptr, align 8
  %4 = alloca ptr, align 8
  store ptr %1, ptr %3, align 8, !tbaa !22
  %5 = getelementptr inbounds nuw i8, ptr %0, i64 16
  %6 = load ptr, ptr %5, align 8, !tbaa !24
  %7 = getelementptr inbounds nuw i8, ptr %6, i64 56
  %8 = load ptr, ptr %7, align 8, !tbaa !33
  %9 = load ptr, ptr %8, align 8, !tbaa !34
  %10 = getelementptr inbounds nuw i8, ptr %6, i64 72
  %11 = load ptr, ptr %10, align 8, !tbaa !4
  call void @llvm.lifetime.start.p0(i64 8, ptr nonnull %4) #4
  store ptr null, ptr %4, align 8, !tbaa !22
  %12 = getelementptr inbounds nuw i8, ptr %11, i64 8
  %13 = load ptr, ptr %12, align 8, !tbaa !36
  %.not = icmp eq ptr %13, null
  br i1 %.not, label %17, label %14

14:                                               ; preds = %2
  %15 = getelementptr inbounds nuw i8, ptr %1, i64 328
  %16 = load ptr, ptr %15, align 8, !tbaa !39
  %.not24 = icmp eq ptr %16, null
  br i1 %.not24, label %17, label %18

17:                                               ; preds = %14, %2
  tail call void (ptr, i32, ptr, ...) @av_log(ptr noundef nonnull %11, i32 noundef 16, ptr noundef nonnull @.str.3) #4
  br label %47

18:                                               ; preds = %14
  %19 = getelementptr inbounds nuw i8, ptr %11, i64 16
  %20 = load ptr, ptr %19, align 8, !tbaa !45
  %21 = getelementptr inbounds nuw i8, ptr %16, i64 8
  %22 = load ptr, ptr %21, align 8, !tbaa !46
  %.not25 = icmp eq ptr %20, %22
  br i1 %.not25, label %24, label %23

23:                                               ; preds = %18
  tail call void (ptr, i32, ptr, ...) @av_log(ptr noundef nonnull %11, i32 noundef 16, ptr noundef nonnull @.str.4) #4
  br label %47

24:                                               ; preds = %18
  %25 = getelementptr inbounds nuw i8, ptr %20, i64 68
  %26 = load i32, ptr %25, align 4, !tbaa !49
  %27 = getelementptr inbounds nuw i8, ptr %20, i64 72
  %28 = load i32, ptr %27, align 8, !tbaa !53
  %29 = tail call ptr @ff_get_video_buffer(ptr noundef %9, i32 noundef %26, i32 noundef %28) #4
  store ptr %29, ptr %4, align 8, !tbaa !22
  %.not26 = icmp eq ptr %29, null
  br i1 %.not26, label %47, label %30

30:                                               ; preds = %24
  %31 = tail call i32 @av_hwframe_transfer_data(ptr noundef nonnull %29, ptr noundef nonnull %1, i32 noundef 0) #4
  %32 = icmp slt i32 %31, 0
  br i1 %32, label %33, label %34

33:                                               ; preds = %30
  tail call void (ptr, i32, ptr, ...) @av_log(ptr noundef nonnull %11, i32 noundef 16, ptr noundef nonnull @.str.5, i32 noundef %31) #4
  br label %47

34:                                               ; preds = %30
  %35 = getelementptr inbounds nuw i8, ptr %9, i64 40
  %36 = load i32, ptr %35, align 8, !tbaa !54
  %37 = getelementptr inbounds nuw i8, ptr %29, i64 104
  store i32 %36, ptr %37, align 8, !tbaa !55
  %38 = getelementptr inbounds nuw i8, ptr %9, i64 44
  %39 = load i32, ptr %38, align 4, !tbaa !56
  %40 = getelementptr inbounds nuw i8, ptr %29, i64 108
  store i32 %39, ptr %40, align 4, !tbaa !57
  %41 = tail call i32 @av_frame_copy_props(ptr noundef nonnull %29, ptr noundef nonnull %1) #4
  %42 = icmp slt i32 %41, 0
  br i1 %42, label %47, label %43

43:                                               ; preds = %34
  call void @av_frame_free(ptr noundef nonnull %3) #4
  %44 = load ptr, ptr %7, align 8, !tbaa !33
  %45 = load ptr, ptr %44, align 8, !tbaa !34
  %46 = call i32 @ff_filter_frame(ptr noundef %45, ptr noundef nonnull %29) #4
  br label %48

47:                                               ; preds = %24, %34, %33, %23, %17
  %.0 = phi i32 [ -22, %23 ], [ %31, %33 ], [ %41, %34 ], [ -22, %17 ], [ -12, %24 ]
  call void @av_frame_free(ptr noundef nonnull %3) #4
  call void @av_frame_free(ptr noundef nonnull %4) #4
  br label %48

48:                                               ; preds = %47, %43
  %.018 = phi i32 [ %.0, %47 ], [ %46, %43 ]
  call void @llvm.lifetime.end.p0(i64 8, ptr nonnull %4) #4
  ret i32 %.018
}